target datalayout = "e-m:e-p270:32:32-p271:32:32-p272:64:64-i64:64-i128:128-f80:128-n8:16:32:64-S128"
target triple = "x86_64-pc-linux-gnu"

%"class.icu_77::CanonicalIterator" = type { %"class.icu_77::UObject", %"class.icu_77::UnicodeString", i8, ptr, i32, ptr, ptr, i32, %"class.icu_77::UnicodeString", ptr, ptr }
%"class.icu_77::UObject" = type { ptr }
%"class.icu_77::UnicodeString" = type { %"class.icu_77::Replaceable", %"union.icu_77::UnicodeString::StackBufferOrFields" }
%"class.icu_77::Replaceable" = type { %"class.icu_77::UObject" }
%"union.icu_77::UnicodeString::StackBufferOrFields" = type { %struct.anon.0, [32 x i8] }
%struct.anon.0 = type { i16, i32, i32, ptr }
%struct.anon = type { i16, [27 x i16] }

@_ZTVN6icu_7717CanonicalIteratorE = unnamed_addr constant { [5 x ptr] } { [5 x ptr] [ptr null, ptr @_ZTIN6icu_7717CanonicalIteratorE, ptr @_ZN6icu_7717CanonicalIteratorD1Ev, ptr @_ZN6icu_7717CanonicalIteratorD0Ev, ptr @_ZNK6icu_7717CanonicalIterator17getDynamicClassIDEv] }, align 8
@_ZTVN6icu_777UObjectE = available_externally unnamed_addr constant { [5 x ptr] } { [5 x ptr] [ptr null, ptr @_ZTIN6icu_777UObjectE, ptr @_ZN6icu_777UObjectD1Ev, ptr @_ZN6icu_777UObjectD0Ev, ptr @_ZNK6icu_777UObject17getDynamicClassIDEv] }, align 8

; Function Attrs: inlinehint mustprogress nounwind uwtable
define linkonce_odr void @_ZN6icu_7711ReplaceableC2Ev(ptr noundef nonnull align 8 dereferenceable(8) %0) unnamed_addr #2 comdat align 2 {
  %2 = alloca ptr, align 8
  store ptr %0, ptr %2, align 8, !tbaa !85
  %3 = load ptr, ptr %2, align 8
  call void @_ZN6icu_777UObjectC2Ev(ptr noundef nonnull align 8 dereferenceable(8) %3) #10
  store ptr getelementptr inbounds inrange(-16, 88) ({ [13 x ptr] }, ptr @_ZTVN6icu_7711ReplaceableE, i32 0, i32 0, i32 2), ptr %3, align 8, !tbaa !11
  ret void
}

; Function Attrs: inlinehint mustprogress nounwind uwtable
define internal noundef signext i8 @_ZL9U_SUCCESS10UErrorCode(i32 noundef %0) #2 {
  %2 = alloca i32, align 4
  store i32 %0, ptr %2, align 4, !tbaa !30
  %3 = load i32, ptr %2, align 4, !tbaa !30
  %4 = icmp sle i32 %3, 0
  %5 = zext i1 %4 to i8
  ret i8 %5
}

; Function Attrs: inlinehint mustprogress uwtable
define linkonce_odr void @_ZN6icu_7713UnicodeStringC2Ev(ptr noundef nonnull align 8 dereferenceable(64) %0) unnamed_addr #3 comdat align 2 {
  %2 = alloca ptr, align 8
  store ptr %0, ptr %2, align 8, !tbaa !8
  %3 = load ptr, ptr %2, align 8
  call void @_ZN6icu_7711ReplaceableC2Ev(ptr noundef nonnull align 8 dereferenceable(8) %3)
  store ptr getelementptr inbounds inrange(-16, 88) ({ [13 x ptr] }, ptr @_ZTVN6icu_7713UnicodeStringE, i32 0, i32 0, i32 2), ptr %3, align 8, !tbaa !11
  %4 = getelementptr inbounds nuw %"class.icu_77::UnicodeString", ptr %3, i32 0, i32 1
  %5 = getelementptr inbounds nuw %struct.anon, ptr %4, i32 0, i32 0
  store i16 2, ptr %5, align 8, !tbaa !34
  ret void
}

; Function Attrs: inlinehint mustprogress nounwind uwtable
define linkonce_odr void @_ZN6icu_777UObjectC2Ev(ptr noundef nonnull align 8 dereferenceable(8) %0) unnamed_addr #2 comdat align 2 {
  %2 = alloca ptr, align 8
  store ptr %0, ptr %2, align 8, !tbaa !32
  %3 = load ptr, ptr %2, align 8
  store ptr getelementptr inbounds inrange(-16, 24) ({ [5 x ptr] }, ptr @_ZTVN6icu_777UObjectE, i32 0, i32 0, i32 2), ptr %3, align 8, !tbaa !11
  ret void
}

; Function Attrs: mustprogress uwtable
define void @_ZN6icu_7717CanonicalIteratorC2ERKNS_13UnicodeStringER10UErrorCode(ptr noundef nonnull align 8 dereferenceable(200) %0, ptr noundef nonnull align 8 dereferenceable(64) %1, ptr noundef nonnull align 4 dereferenceable(4) %2) unnamed_addr #1 align 2 personality ptr @__gxx_personality_v0 {
  %4 = alloca ptr, align 8
  %5 = alloca ptr, align 8
  %6 = alloca ptr, align 8
  %7 = alloca ptr, align 8
  %8 = alloca i32, align 4
  store ptr %0, ptr %4, align 8, !tbaa !3
  store ptr %1, ptr %5, align 8, !tbaa !8
  store ptr %2, ptr %6, align 8, !tbaa !10
  %9 = load ptr, ptr %4, align 8
  call void @_ZN6icu_777UObjectC2Ev(ptr noundef nonnull align 8 dereferenceable(8) %9) #10
  store ptr getelementptr inbounds inrange(-16, 24) ({ [5 x ptr] }, ptr @_ZTVN6icu_7717CanonicalIteratorE, i32 0, i32 0, i32 2), ptr %9, align 8, !tbaa !11
  %10 = getelementptr inbounds nuw %"class.icu_77::CanonicalIterator", ptr %9, i32 0, i32 1
  invoke void @_ZN6icu_7713UnicodeStringC2Ev(ptr noundef nonnull align 8 dereferenceable(64) %10)
          to label %11 unwind label %43

11:                                               ; preds = %3
  %12 = getelementptr inbounds nuw %"class.icu_77::CanonicalIterator", ptr %9, i32 0, i32 3
  store ptr null, ptr %12, align 8, !tbaa !13
  %13 = getelementptr inbounds nuw %"class.icu_77::CanonicalIterator", ptr %9, i32 0, i32 4
  store i32 0, ptr %13, align 8, !tbaa !24
  %14 = getelementptr inbounds nuw %"class.icu_77::CanonicalIterator", ptr %9, i32 0, i32 5
  store ptr null, ptr %14, align 8, !tbaa !25
  %15 = getelementptr inbounds nuw %"class.icu_77::CanonicalIterator", ptr %9, i32 0, i32 6
  store ptr null, ptr %15, align 8, !tbaa !26
  %16 = getelementptr inbounds nuw %"class.icu_77::CanonicalIterator", ptr %9, i32 0, i32 7
  store i32 0, ptr %16, align 8, !tbaa !27
  %17 = getelementptr inbounds nuw %"class.icu_77::CanonicalIterator", ptr %9, i32 0, i32 8
  invoke void @_ZN6icu_7713UnicodeStringC2Ev(ptr noundef nonnull align 8 dereferenceable(64) %17)
          to label %18 unwind label %47

18:                                               ; preds = %11
  %19 = getelementptr inbounds nuw %"class.icu_77::CanonicalIterator", ptr %9, i32 0, i32 9
  %20 = load ptr, ptr %6, align 8, !tbaa !10
  %21 = invoke noundef ptr @_ZN6icu_7711Normalizer214getNFDInstanceER10UErrorCode(ptr noundef nonnull align 4 dereferenceable(4) %20)
          to label %22 unwind label %51

22:                                               ; preds = %18
  store ptr %21, ptr %19, align 8, !tbaa !28
  %23 = getelementptr inbounds nuw %"class.icu_77::CanonicalIterator", ptr %9, i32 0, i32 10
  %24 = load ptr, ptr %6, align 8, !tbaa !10
  %25 = invoke noundef ptr @_ZN6icu_7718Normalizer2Factory10getNFCImplER10UErrorCode(ptr noundef nonnull align 4 dereferenceable(4) %24)
          to label %26 unwind label %51

26:                                               ; preds = %22
  store ptr %25, ptr %23, align 8, !tbaa !29
  %27 = load ptr, ptr %6, align 8, !tbaa !10
  %28 = load i32, ptr %27, align 4, !tbaa !30
  %29 = invoke noundef signext i8 @_ZL9U_SUCCESS10UErrorCode(i32 noundef %28)
          to label %30 unwind label %51

30:                                               ; preds = %26
  %31 = icmp ne i8 %29, 0
  br i1 %31, label %32, label %55

32:                                               ; preds = %30
  %33 = getelementptr inbounds nuw %"class.icu_77::CanonicalIterator", ptr %9, i32 0, i32 10
  %34 = load ptr, ptr %33, align 8, !tbaa !29
  %35 = load ptr, ptr %6, align 8, !tbaa !10
  %36 = invoke noundef signext i8 @_ZNK6icu_7715Normalizer2Impl19ensureCanonIterDataER10UErrorCode(ptr noundef nonnull align 8 dereferenceable(80) %34, ptr noundef nonnull align 4 dereferenceable(4) %35)
          to label %37 unwind label %51

37:                                               ; preds = %32
  %38 = icmp ne i8 %36, 0
  br i1 %38, label %39, label %55

39:                                               ; preds = %37
  %40 = load ptr, ptr %5, align 8, !tbaa !8
  %41 = load ptr, ptr %6, align 8, !tbaa !10
  invoke void @_ZN6icu_7717CanonicalIterator9setSourceERKNS_13UnicodeStringER10UErrorCode(ptr noundef nonnull align 8 dereferenceable(200) %9, ptr noundef nonnull align 8 dereferenceable(64) %40, ptr noundef nonnull align 4 dereferenceable(4) %41)
          to label %42 unwind label %51

42:                                               ; preds = %39
  br label %55

43:                                               ; preds = %3
  %44 = landingpad { ptr, i32 }
          cleanup
  %45 = extractvalue { ptr, i32 } %44, 0
  store ptr %45, ptr %7, align 8
  %46 = extractvalue { ptr, i32 } %44, 1
  store i32 %46, ptr %8, align 4
  br label %57

47:                                               ; preds = %11
  %48 = landingpad { ptr, i32 }
          cleanup
  %49 = extractvalue { ptr, i32 } %48, 0
  store ptr %49, ptr %7, align 8
  %50 = extractvalue { ptr, i32 } %48, 1
  store i32 %50, ptr %8, align 4
  br label %56

51:                                               ; preds = %39, %32, %26, %22, %18
  %52 = landingpad { ptr, i32 }
          cleanup
  %53 = extractvalue { ptr, i32 } %52, 0
  store ptr %53, ptr %7, align 8
  %54 = extractvalue { ptr, i32 } %52, 1
  store i32 %54, ptr %8, align 4
  call void @_ZN6icu_7713UnicodeStringD1Ev(ptr noundef nonnull align 8 dereferenceable(64) %17) #10
  br label %56

55:                                               ; preds = %42, %37, %30
  ret void

56:                                               ; preds = %51, %47
  call void @_ZN6icu_7713UnicodeStringD1Ev(ptr noundef nonnull align 8 dereferenceable(64) %10) #10
  br label %57

57:                                               ; preds = %56, %43
  call void @_ZN6icu_777UObjectD2Ev(ptr noundef nonnull align 8 dereferenceable(8) %9) #10
  br label %58

58:                                               ; preds = %57
  %59 = load ptr, ptr %7, align 8
  %60 = load i32, ptr %8, align 4
  %61 = insertvalue { ptr, i32 } poison, ptr %59, 0
  %62 = insertvalue { ptr, i32 } %61, i32 %60, 1
  resume { ptr, i32 } %62
}