; Function Attrs: mustprogress uwtable
define void @_ZN6icu_7717CanonicalIteratorC2ERKNS_13UnicodeStringER10UErrorCode(ptr noundef nonnull align 8 dereferenceable(200) initializes((0, 18), (80, 92), (96, 116), (120, 130)) %0, ptr noundef nonnull align 8 dereferenceable(64) %1, ptr noundef nonnull align 4 dereferenceable(4) %2) unnamed_addr #1 align 2 personality ptr @__gxx_personality_v0 {
  store ptr getelementptr inbounds nuw inrange(-16, 24) (i8, ptr @_ZTVN6icu_7717CanonicalIteratorE, i64 16), ptr %0, align 8, !tbaa !3
  %4 = getelementptr inbounds nuw i8, ptr %0, i64 8
  store ptr getelementptr inbounds nuw inrange(-16, 88) (i8, ptr @_ZTVN6icu_7713UnicodeStringE, i64 16), ptr %4, align 8, !tbaa !3
  %5 = getelementptr inbounds nuw i8, ptr %0, i64 16
  store i16 2, ptr %5, align 8, !tbaa !6
  %6 = getelementptr inbounds nuw i8, ptr %0, i64 80
  store ptr null, ptr %6, align 8, !tbaa !8
  %7 = getelementptr inbounds nuw i8, ptr %0, i64 88
  store i32 0, ptr %7, align 8, !tbaa !20
  %8 = getelementptr inbounds nuw i8, ptr %0, i64 96
  %9 = getelementptr inbounds nuw i8, ptr %0, i64 120
  tail call void @llvm.memset.p0.i64(ptr noundef nonnull align 8 dereferenceable(20) %8, i8 0, i64 20, i1 false)
  store ptr getelementptr inbounds nuw inrange(-16, 88) (i8, ptr @_ZTVN6icu_7713UnicodeStringE, i64 16), ptr %9, align 8, !tbaa !3
  %10 = getelementptr inbounds nuw i8, ptr %0, i64 128
  store i16 2, ptr %10, align 8, !tbaa !6
  %11 = invoke noundef ptr @_ZN6icu_7711Normalizer214getNFDInstanceER10UErrorCode(ptr noundef nonnull align 4 dereferenceable(4) %2)
          to label %12 unwind label %23

12:                                               ; preds = %3
  %13 = getelementptr inbounds nuw i8, ptr %0, i64 184
  store ptr %11, ptr %13, align 8, !tbaa !21
  %14 = invoke noundef ptr @_ZN6icu_7718Normalizer2Factory10getNFCImplER10UErrorCode(ptr noundef nonnull align 4 dereferenceable(4) %2)
          to label %15 unwind label %23

15:                                               ; preds = %12
  %16 = getelementptr inbounds nuw i8, ptr %0, i64 192
  store ptr %14, ptr %16, align 8, !tbaa !22
  %17 = load i32, ptr %2, align 4, !tbaa !23
  %18 = icmp sgt i32 %17, 0
  br i1 %18, label %25, label %19

19:                                               ; preds = %15
  %20 = invoke noundef signext i8 @_ZNK6icu_7715Normalizer2Impl19ensureCanonIterDataER10UErrorCode(ptr noundef nonnull align 8 dereferenceable(80) %14, ptr noundef nonnull align 4 dereferenceable(4) %2)
          to label %21 unwind label %23

21:                                               ; preds = %19
  %.not10 = icmp eq i8 %20, 0
  br i1 %.not10, label %25, label %22

22:                                               ; preds = %21
  invoke void @_ZN6icu_7717CanonicalIterator9setSourceERKNS_13UnicodeStringER10UErrorCode(ptr noundef nonnull align 8 dereferenceable(200) %0, ptr noundef nonnull align 8 dereferenceable(64) %1, ptr noundef nonnull align 4 dereferenceable(4) %2)
          to label %25 unwind label %23

23:                                               ; preds = %22, %19, %12, %3
  %24 = landingpad { ptr, i32 }
          cleanup
  tail call void @_ZN6icu_7713UnicodeStringD1Ev(ptr noundef nonnull align 8 dereferenceable(64) %9) #13
  tail call void @_ZN6icu_7713UnicodeStringD1Ev(ptr noundef nonnull align 8 dereferenceable(64) %4) #13
  tail call void @_ZN6icu_777UObjectD2Ev(ptr noundef nonnull align 8 dereferenceable(8) %0) #13
  resume { ptr, i32 } %24

25:                                               ; preds = %22, %21, %15
  ret void
}